; ModuleID = '9/569.c'
source_filename = "9/569.c"
target datalayout = "e-m:e-p270:32:32-p271:32:32-p272:64:64-i64:64-f80:128-n8:16:32:64-S128"
target triple = "x86_64-pc-linux-gnu"

@.str = private unnamed_addr constant [3 x i8] c"%d\00", align 1
@.str.1 = private unnamed_addr constant [6 x i8] c"%s %d\00", align 1
@.str.2 = private unnamed_addr constant [4 x i8] c"%s\0A\00", align 1

; Function Attrs: noinline nounwind uwtable
define dso_local i32 @main() #0 {
  %1 = alloca i32, align 4
  %2 = alloca [110 x i8], align 16
  %3 = alloca [100 x [1000 x i8]], align 16
  %4 = alloca i32, align 4
  %5 = alloca i32, align 4
  %6 = alloca i32, align 4
  %7 = alloca i32, align 4
  %8 = alloca i32, align 4
  %9 = alloca i32, align 4
  %10 = alloca i32, align 4
  %11 = alloca [1000 x i32], align 16
  %12 = alloca [1000 x i32], align 16
  %13 = alloca [1000 x i32], align 16
  %14 = alloca i32, align 4
  %15 = alloca i32, align 4
  %16 = alloca [1000 x i32], align 16
  %17 = alloca [1000 x i32], align 16
  store i32 0, i32* %1, align 4
  store i32 0, i32* %9, align 4
  store i32 0, i32* %10, align 4
  %18 = call i32 (i8*, ...) @__isoc99_scanf(i8* getelementptr inbounds ([3 x i8], [3 x i8]* @.str, i64 0, i64 0), i32* %4)
  store i32 1, i32* %5, align 4
  br label %19

19:                                               ; preds = %61, %0
  %20 = load i32, i32* %5, align 4
  %21 = load i32, i32* %4, align 4
  %22 = icmp sle i32 %20, %21
  br i1 %22, label %23, label %64

23:                                               ; preds = %19
  %24 = getelementptr inbounds [110 x i8], [110 x i8]* %2, i64 0, i64 0
  %25 = call i32 (i8*, ...) @__isoc99_scanf(i8* getelementptr inbounds ([6 x i8], [6 x i8]* @.str.1, i64 0, i64 0), i8* %24, i32* %6)
  %26 = getelementptr inbounds [110 x i8], [110 x i8]* %2, i64 0, i64 0
  %27 = call i64 @strlen(i8* %26) #3
  %28 = trunc i64 %27 to i32
  store i32 %28, i32* %7, align 4
  store i32 0, i32* %8, align 4
  br label %29

29:                                               ; preds = %45, %23
  %30 = load i32, i32* %8, align 4
  %31 = load i32, i32* %7, align 4
  %32 = icmp slt i32 %30, %31
  br i1 %32, label %33, label %48

33:                                               ; preds = %29
  %34 = load i32, i32* %8, align 4
  %35 = sext i32 %34 to i64
  %36 = getelementptr inbounds [110 x i8], [110 x i8]* %2, i64 0, i64 %35
  %37 = load i8, i8* %36, align 1
  %38 = load i32, i32* %5, align 4
  %39 = sub nsw i32 %38, 1
  %40 = sext i32 %39 to i64
  %41 = getelementptr inbounds [100 x [1000 x i8]], [100 x [1000 x i8]]* %3, i64 0, i64 %40
  %42 = load i32, i32* %8, align 4
  %43 = sext i32 %42 to i64
  %44 = getelementptr inbounds [1000 x i8], [1000 x i8]* %41, i64 0, i64 %43
  store i8 %37, i8* %44, align 1
  br label %45

45:                                               ; preds = %33
  %46 = load i32, i32* %8, align 4
  %47 = add nsw i32 %46, 1
  store i32 %47, i32* %8, align 4
  br label %29

48:                                               ; preds = %29
  %49 = load i32, i32* %5, align 4
  %50 = sub nsw i32 %49, 1
  %51 = sext i32 %50 to i64
  %52 = getelementptr inbounds [100 x [1000 x i8]], [100 x [1000 x i8]]* %3, i64 0, i64 %51
  %53 = load i32, i32* %7, align 4
  %54 = sext i32 %53 to i64
  %55 = getelementptr inbounds [1000 x i8], [1000 x i8]* %52, i64 0, i64 %54
  store i8 0, i8* %55, align 1
  %56 = load i32, i32* %6, align 4
  %57 = load i32, i32* %5, align 4
  %58 = sub nsw i32 %57, 1
  %59 = sext i32 %58 to i64
  %60 = getelementptr inbounds [1000 x i32], [1000 x i32]* %11, i64 0, i64 %59
  store i32 %56, i32* %60, align 4
  br label %61

61:                                               ; preds = %48
  %62 = load i32, i32* %5, align 4
  %63 = add nsw i32 %62, 1
  store i32 %63, i32* %5, align 4
  br label %19

64:                                               ; preds = %19
  store i32 0, i32* %5, align 4
  br label %65

65:                                               ; preds = %111, %64
  %66 = load i32, i32* %5, align 4
  %67 = load i32, i32* %4, align 4
  %68 = icmp slt i32 %66, %67
  br i1 %68, label %69, label %114

69:                                               ; preds = %65
  %70 = load i32, i32* %5, align 4
  %71 = sext i32 %70 to i64
  %72 = getelementptr inbounds [1000 x i32], [1000 x i32]* %11, i64 0, i64 %71
  %73 = load i32, i32* %72, align 4
  %74 = icmp sge i32 %73, 60
  br i1 %74, label %75, label %89

75:                                               ; preds = %69
  %76 = load i32, i32* %5, align 4
  %77 = sext i32 %76 to i64
  %78 = getelementptr inbounds [1000 x i32], [1000 x i32]* %11, i64 0, i64 %77
  %79 = load i32, i32* %78, align 4
  %80 = load i32, i32* %9, align 4
  %81 = sext i32 %80 to i64
  %82 = getelementptr inbounds [1000 x i32], [1000 x i32]* %12, i64 0, i64 %81
  store i32 %79, i32* %82, align 4
  %83 = load i32, i32* %5, align 4
  %84 = load i32, i32* %9, align 4
  %85 = sext i32 %84 to i64
  %86 = getelementptr inbounds [1000 x i32], [1000 x i32]* %16, i64 0, i64 %85
  store i32 %83, i32* %86, align 4
  %87 = load i32, i32* %9, align 4
  %88 = add nsw i32 %87, 1
  store i32 %88, i32* %9, align 4
  br label %110

89:                                               ; preds = %69
  %90 = load i32, i32* %5, align 4
  %91 = sext i32 %90 to i64
  %92 = getelementptr inbounds [1000 x i32], [1000 x i32]* %11, i64 0, i64 %91
  %93 = load i32, i32* %92, align 4
  %94 = icmp slt i32 %93, 60
  br i1 %94, label %95, label %109

95:                                               ; preds = %89
  %96 = load i32, i32* %5, align 4
  %97 = sext i32 %96 to i64
  %98 = getelementptr inbounds [1000 x i32], [1000 x i32]* %11, i64 0, i64 %97
  %99 = load i32, i32* %98, align 4
  %100 = load i32, i32* %10, align 4
  %101 = sext i32 %100 to i64
  %102 = getelementptr inbounds [1000 x i32], [1000 x i32]* %13, i64 0, i64 %101
  store i32 %99, i32* %102, align 4
  %103 = load i32, i32* %5, align 4
  %104 = load i32, i32* %10, align 4
  %105 = sext i32 %104 to i64
  %106 = getelementptr inbounds [1000 x i32], [1000 x i32]* %17, i64 0, i64 %105
  store i32 %103, i32* %106, align 4
  %107 = load i32, i32* %10, align 4
  %108 = add nsw i32 %107, 1
  store i32 %108, i32* %10, align 4
  br label %109

109:                                              ; preds = %95, %89
  br label %110

110:                                              ; preds = %109, %75
  br label %111

111:                                              ; preds = %110
  %112 = load i32, i32* %5, align 4
  %113 = add nsw i32 %112, 1
  store i32 %113, i32* %5, align 4
  br label %65

114:                                              ; preds = %65
  store i32 0, i32* %8, align 4
  br label %115

115:                                              ; preds = %164, %114
  %116 = load i32, i32* %8, align 4
  %117 = load i32, i32* %9, align 4
  %118 = sub nsw i32 %117, 1
  %119 = icmp sle i32 %116, %118
  br i1 %119, label %120, label %167

120:                                              ; preds = %115
  store i32 0, i32* %5, align 4
  br label %121

121:                                              ; preds = %149, %120
  %122 = load i32, i32* %5, align 4
  %123 = load i32, i32* %9, align 4
  %124 = sub nsw i32 %123, 1
  %125 = icmp sle i32 %122, %124
  br i1 %125, label %126, label %152

126:                                              ; preds = %121
  %127 = load i32, i32* %5, align 4
  %128 = sext i32 %127 to i64
  %129 = getelementptr inbounds [1000 x i32], [1000 x i32]* %12, i64 0, i64 %128
  %130 = load i32, i32* %129, align 4
  %131 = load i32, i32* %14, align 4
  %132 = icmp sgt i32 %130, %131
  br i1 %132, label %133, label %139

133:                                              ; preds = %126
  %134 = load i32, i32* %5, align 4
  %135 = sext i32 %134 to i64
  %136 = getelementptr inbounds [1000 x i32], [1000 x i32]* %12, i64 0, i64 %135
  %137 = load i32, i32* %136, align 4
  store i32 %137, i32* %14, align 4
  %138 = load i32, i32* %5, align 4
  store i32 %138, i32* %15, align 4
  br label %148

139:                                              ; preds = %126
  %140 = load i32, i32* %5, align 4
  %141 = sext i32 %140 to i64
  %142 = getelementptr inbounds [1000 x i32], [1000 x i32]* %12, i64 0, i64 %141
  %143 = load i32, i32* %142, align 4
  %144 = load i32, i32* %14, align 4
  %145 = icmp sle i32 %143, %144
  br i1 %145, label %146, label %147

146:                                              ; preds = %139
  br label %147

147:                                              ; preds = %146, %139
  br label %148

148:                                              ; preds = %147, %133
  br label %149

149:                                              ; preds = %148
  %150 = load i32, i32* %5, align 4
  %151 = add nsw i32 %150, 1
  store i32 %151, i32* %5, align 4
  br label %121

152:                                              ; preds = %121
  %153 = load i32, i32* %15, align 4
  %154 = sext i32 %153 to i64
  %155 = getelementptr inbounds [1000 x i32], [1000 x i32]* %16, i64 0, i64 %154
  %156 = load i32, i32* %155, align 4
  %157 = sext i32 %156 to i64
  %158 = getelementptr inbounds [100 x [1000 x i8]], [100 x [1000 x i8]]* %3, i64 0, i64 %157
  %159 = getelementptr inbounds [1000 x i8], [1000 x i8]* %158, i64 0, i64 0
  %160 = call i32 (i8*, ...) @printf(i8* getelementptr inbounds ([4 x i8], [4 x i8]* @.str.2, i64 0, i64 0), i8* %159)
  store i32 0, i32* %14, align 4
  %161 = load i32, i32* %15, align 4
  %162 = sext i32 %161 to i64
  %163 = getelementptr inbounds [1000 x i32], [1000 x i32]* %12, i64 0, i64 %162
  store i32 0, i32* %163, align 4
  br label %164

164:                                              ; preds = %152
  %165 = load i32, i32* %8, align 4
  %166 = add nsw i32 %165, 1
  store i32 %166, i32* %8, align 4
  br label %115

167:                                              ; preds = %115
  store i32 0, i32* %5, align 4
  br label %168

168:                                              ; preds = %182, %167
  %169 = load i32, i32* %5, align 4
  %170 = load i32, i32* %10, align 4
  %171 = sub nsw i32 %170, 1
  %172 = icmp sle i32 %169, %171
  br i1 %172, label %173, label %185

173:                                              ; preds = %168
  %174 = load i32, i32* %5, align 4
  %175 = sext i32 %174 to i64
  %176 = getelementptr inbounds [1000 x i32], [1000 x i32]* %17, i64 0, i64 %175
  %177 = load i32, i32* %176, align 4
  %178 = sext i32 %177 to i64
  %179 = getelementptr inbounds [100 x [1000 x i8]], [100 x [1000 x i8]]* %3, i64 0, i64 %178
  %180 = getelementptr inbounds [1000 x i8], [1000 x i8]* %179, i64 0, i64 0
  %181 = call i32 (i8*, ...) @printf(i8* getelementptr inbounds ([4 x i8], [4 x i8]* @.str.2, i64 0, i64 0), i8* %180)
  br label %182

182:                                              ; preds = %173
  %183 = load i32, i32* %5, align 4
  %184 = add nsw i32 %183, 1
  store i32 %184, i32* %5, align 4
  br label %168

185:                                              ; preds = %168
  %186 = load i32, i32* %1, align 4
  ret i32 %186
}

declare dso_local i32 @__isoc99_scanf(i8*, ...) #1

; Function Attrs: nounwind readonly
declare dso_local i64 @strlen(i8*) #2

declare dso_local i32 @printf(i8*, ...) #1


!llvm.module.flags = !{!0}
!llvm.ident = !{!1}

!0 = !{i32 1, !"wchar_size", i32 4}
!1 = !{!"clang version 10.0.0-4ubuntu1 "}
